; Function Attrs: mustprogress uwtable
define void @_ZN7openvdb5v11_011compression17PagedOutputStream6resizeEm(ptr nocapture noundef nonnull align 8 dereferenceable(41) %this, i64 noundef %size) local_unnamed_addr #4 align 2 {
entry:
  %0 = add i64 %size, -48
  %or.cond = icmp ult i64 %0, 80
  %spec.store.select = select i1 %or.cond, i64 128, i64 %size
  %mCapacity = getelementptr inbounds i8, ptr %this, i64 16
  %1 = load i64, ptr %mCapacity, align 8
  %cmp3 = icmp ugt i64 %spec.store.select, %1
  br i1 %cmp3, label %if.then4, label %if.end9

if.then4:                                         ; preds = %entry
  store i64 %spec.store.select, ptr %mCapacity, align 8
  %call = tail call noalias noundef nonnull ptr @_Znam(i64 noundef %spec.store.select) #19
  %2 = load ptr, ptr %this, align 8
  store ptr %call, ptr %this, align 8
  %tobool.not.i.i = icmp eq ptr %2, null
  br i1 %tobool.not.i.i, label %_ZNSt10unique_ptrIA_cSt14default_deleteIS0_EE5resetIPcvEEvT_.exit, label %_ZNKSt14default_deleteIA_cEclIcEENSt9enable_ifIXsr14is_convertibleIPA_T_PS0_EE5valueEvE4typeEPS4_.exit.i.i

_ZNKSt14default_deleteIA_cEclIcEENSt9enable_ifIXsr14is_convertibleIPA_T_PS0_EE5valueEvE4typeEPS4_.exit.i.i: ; preds = %if.then4
  tail call void @_ZdaPv(ptr noundef nonnull %2) #20
  %.pre = load i64, ptr %mCapacity, align 8
  br label %_ZNSt10unique_ptrIA_cSt14default_deleteIS0_EE5resetIPcvEEvT_.exit

_ZNSt10unique_ptrIA_cSt14default_deleteIS0_EE5resetIPcvEEvT_.exit: ; preds = %if.then4, %_ZNKSt14default_deleteIA_cEclIcEENSt9enable_ifIXsr14is_convertibleIPA_T_PS0_EE5valueEvE4typeEPS4_.exit.i.i
  %3 = phi i64 [ %spec.store.select, %if.then4 ], [ %.pre, %_ZNKSt14default_deleteIA_cEclIcEENSt9enable_ifIXsr14is_convertibleIPA_T_PS0_EE5valueEvE4typeEPS4_.exit.i.i ]
  %mCompressedData = getelementptr inbounds i8, ptr %this, i64 8
  %add = add i64 %3, 16
  %call8 = tail call noalias noundef nonnull ptr @_Znam(i64 noundef %add) #19
  %4 = load ptr, ptr %mCompressedData, align 8
  store ptr %call8, ptr %mCompressedData, align 8
  %tobool.not.i.i4 = icmp eq ptr %4, null
  br i1 %tobool.not.i.i4, label %if.end9, label %_ZNKSt14default_deleteIA_cEclIcEENSt9enable_ifIXsr14is_convertibleIPA_T_PS0_EE5valueEvE4typeEPS4_.exit.i.i5

_ZNKSt14default_deleteIA_cEclIcEENSt9enable_ifIXsr14is_convertibleIPA_T_PS0_EE5valueEvE4typeEPS4_.exit.i.i5: ; preds = %_ZNSt10unique_ptrIA_cSt14default_deleteIS0_EE5resetIPcvEEvT_.exit
  tail call void @_ZdaPv(ptr noundef nonnull %4) #20
  br label %if.end9

if.end9:                                          ; preds = %_ZNKSt14default_deleteIA_cEclIcEENSt9enable_ifIXsr14is_convertibleIPA_T_PS0_EE5valueEvE4typeEPS4_.exit.i.i5, %_ZNSt10unique_ptrIA_cSt14default_deleteIS0_EE5resetIPcvEEvT_.exit, %entry
  ret void
}